target datalayout = "e-m:e-p270:32:32-p271:32:32-p272:64:64-i64:64-i128:128-f80:128-n8:16:32:64-S128"
target triple = "x86_64-pc-linux-gnu"

%struct.conf_st = type { ptr }

; Function Attrs: nounwind uwtable
define hidden ptr @NCONF_new(ptr noundef %0) #0 {
  %2 = alloca ptr, align 8
  %3 = alloca ptr, align 8
  %4 = alloca ptr, align 8
  %5 = alloca i32, align 4
  store ptr %0, ptr %3, align 8, !tbaa !6
  call void @llvm.lifetime.start.p0(i64 8, ptr %4) #8
  %6 = load ptr, ptr %3, align 8, !tbaa !6
  %7 = icmp ne ptr %6, null
  br i1 %7, label %8, label %9

8:                                                ; preds = %1
  store ptr null, ptr %2, align 8
  store i32 1, ptr %5, align 4
  br label %26

9:                                                ; preds = %1
  %10 = call noalias ptr @malloc(i64 noundef 8) #9
  store ptr %10, ptr %4, align 8, !tbaa !10
  %11 = load ptr, ptr %4, align 8, !tbaa !10
  %12 = icmp eq ptr %11, null
  br i1 %12, label %13, label %14

13:                                               ; preds = %9
  store ptr null, ptr %2, align 8
  store i32 1, ptr %5, align 4
  br label %26

14:                                               ; preds = %9
  %15 = call ptr @lh_new(ptr noundef @conf_value_hash, ptr noundef @conf_value_cmp)
  %16 = load ptr, ptr %4, align 8, !tbaa !10
  %17 = getelementptr inbounds nuw %struct.conf_st, ptr %16, i32 0, i32 0
  store ptr %15, ptr %17, align 8, !tbaa !12
  %18 = load ptr, ptr %4, align 8, !tbaa !10
  %19 = getelementptr inbounds nuw %struct.conf_st, ptr %18, i32 0, i32 0
  %20 = load ptr, ptr %19, align 8, !tbaa !12
  %21 = icmp eq ptr %20, null
  br i1 %21, label %22, label %24

22:                                               ; preds = %14
  %23 = load ptr, ptr %4, align 8, !tbaa !10
  call void @free(ptr noundef %23) #8
  store ptr null, ptr %2, align 8
  store i32 1, ptr %5, align 4
  br label %26

24:                                               ; preds = %14
  %25 = load ptr, ptr %4, align 8, !tbaa !10
  store ptr %25, ptr %2, align 8
  store i32 1, ptr %5, align 4
  br label %26

26:                                               ; preds = %24, %22, %13, %8
  call void @llvm.lifetime.end.p0(i64 8, ptr %4) #8
  %27 = load ptr, ptr %2, align 8
  ret ptr %27
}