; Function Attrs: nounwind uwtable
define hidden noalias noundef ptr @NCONF_new(ptr noundef readnone captures(address_is_null) %0) local_unnamed_addr #0 {
  %.not = icmp eq ptr %0, null
  br i1 %.not, label %2, label %9

2:                                                ; preds = %1
  %3 = tail call noalias dereferenceable_or_null(8) ptr @malloc(i64 noundef 8) #11
  %4 = icmp eq ptr %3, null
  br i1 %4, label %9, label %5

5:                                                ; preds = %2
  %6 = tail call ptr @lh_new(ptr noundef nonnull @conf_value_hash, ptr noundef nonnull @conf_value_cmp) #12
  store ptr %6, ptr %3, align 8, !tbaa !6
  %7 = icmp eq ptr %6, null
  br i1 %7, label %8, label %9

8:                                                ; preds = %5
  tail call void @free(ptr noundef nonnull %3) #12
  br label %9

9:                                                ; preds = %5, %2, %1, %8
  %.0 = phi ptr [ null, %8 ], [ null, %1 ], [ null, %2 ], [ %3, %5 ]
  ret ptr %.0
}